; Function Attrs: nounwind uwtable
define internal range(i32 -1, 1) i32 @H5C__json_write_start_log_msg(ptr noundef readonly captures(none) %0) #0 {
  %2 = load i8, ptr @H5C_init_g, align 1, !tbaa !3, !range !7, !noundef !8
  %3 = trunc nuw i8 %2 to i1
  %4 = load i8, ptr @H5_libterm_g, align 1, !range !7
  %5 = trunc nuw i8 %4 to i1
  %6 = xor i1 %5, true
  %7 = select i1 %3, i1 true, i1 %6
  br i1 %7, label %8, label %H5C__json_write_log_message.exit.thread, !prof !9

8:                                                ; preds = %1
  %9 = getelementptr inbounds nuw i8, ptr %0, i64 8
  %10 = load ptr, ptr %9, align 8, !tbaa !15
  %11 = tail call i64 @time(ptr noundef null) #10
  %12 = tail call i32 (ptr, i64, ptr, ...) @snprintf(ptr noundef nonnull dereferenceable(1) %10, i64 noundef 1024, ptr noundef nonnull @.str.9, i64 noundef %11) #10
  %13 = load i8, ptr @H5C_init_g, align 1, !tbaa !3, !range !7, !noundef !8
  %14 = trunc nuw i8 %13 to i1
  %15 = load i8, ptr @H5_libterm_g, align 1, !range !7
  %16 = trunc nuw i8 %15 to i1
  %17 = xor i1 %16, true
  %18 = select i1 %14, i1 true, i1 %17
  br i1 %18, label %19, label %H5C__json_write_log_message.exit.thread, !prof !9

19:                                               ; preds = %8
  %20 = load ptr, ptr %9, align 8, !tbaa !15
  %21 = tail call i64 @strlen(ptr noundef nonnull dereferenceable(1) %20) #11
  %22 = trunc i64 %21 to i32
  %23 = load ptr, ptr %0, align 8, !tbaa !21
  %24 = tail call i32 (ptr, ptr, ...) @fprintf(ptr noundef %23, ptr noundef nonnull @.str.3, ptr noundef nonnull %20) #10
  %.not.i = icmp eq i32 %24, %22
  br i1 %.not.i, label %25, label %27

25:                                               ; preds = %19
  %26 = load ptr, ptr %9, align 8, !tbaa !15
  tail call void @llvm.memset.p0.i64(ptr align 1 %26, i8 0, i64 %21, i1 false)
  br label %H5C__json_write_log_message.exit.thread

27:                                               ; preds = %19
  %28 = load i64, ptr @H5E_CACHE_g, align 8, !tbaa !19
  %29 = load i64, ptr @H5E_LOGGING_g, align 8, !tbaa !19
  %30 = tail call i32 (ptr, ptr, i32, i64, i64, ptr, ...) @H5E_printf_stack(ptr noundef nonnull @.str, ptr noundef nonnull @__func__.H5C__json_write_log_message, i32 noundef 173, i64 noundef %28, i64 noundef %29, ptr noundef nonnull @.str.11) #10
  %31 = load i64, ptr @H5E_CACHE_g, align 8, !tbaa !19
  %32 = load i64, ptr @H5E_LOGGING_g, align 8, !tbaa !19
  %33 = tail call i32 (ptr, ptr, i32, i64, i64, ptr, ...) @H5E_printf_stack(ptr noundef nonnull @.str, ptr noundef nonnull @__func__.H5C__json_write_start_log_msg, i32 noundef 346, i64 noundef %31, i64 noundef %32, ptr noundef nonnull @.str.10) #10
  br label %H5C__json_write_log_message.exit.thread

H5C__json_write_log_message.exit.thread:          ; preds = %8, %25, %27, %1
  %.0 = phi i32 [ -1, %27 ], [ 0, %1 ], [ 0, %25 ], [ 0, %8 ]
  ret i32 %.0
}